; Function Attrs: mustprogress uwtable
define hidden noundef zeroext i1 @_ZNK15static_features7is_gateEPK4expr(ptr nocapture noundef nonnull readonly align 8 dereferenceable(792) %this, ptr noundef %e) local_unnamed_addr #3 align 2 {
entry:
  %m_kind.i.i.i = getelementptr inbounds i8, ptr %e, i64 4
  %bf.load.i.i.i = load i32, ptr %m_kind.i.i.i, align 4
  %bf.clear.i.i.i = and i32 %bf.load.i.i.i, 65535
  %cmp.i.i = icmp eq i32 %bf.clear.i.i.i, 0
  br i1 %cmp.i.i, label %land.rhs.i, label %if.end

land.rhs.i:                                       ; preds = %entry
  %m_decl.i.i.i = getelementptr inbounds i8, ptr %e, i64 16
  %0 = load ptr, ptr %m_decl.i.i.i, align 8
  %m_info.i.i.i = getelementptr inbounds i8, ptr %0, i64 24
  %1 = load ptr, ptr %m_info.i.i.i, align 8
  %cmp.i.i.i = icmp eq ptr %1, null
  br i1 %cmp.i.i.i, label %if.end, label %_ZNK15static_features13is_basic_exprEPK4expr.exit.thread

_ZNK15static_features13is_basic_exprEPK4expr.exit.thread: ; preds = %land.rhs.i
  %2 = load i32, ptr %1, align 8
  %m_bfid.i7 = getelementptr inbounds i8, ptr %this, i64 264
  %3 = load i32, ptr %m_bfid.i7, align 8
  %cmp.i8 = icmp eq i32 %2, %3
  br i1 %cmp.i8, label %_ZNK3app13get_decl_kindEv.exit, label %if.end

_ZNK3app13get_decl_kindEv.exit:                   ; preds = %_ZNK15static_features13is_basic_exprEPK4expr.exit.thread
  %m_kind.i.i.i4 = getelementptr inbounds i8, ptr %1, i64 4
  %4 = load i32, ptr %m_kind.i.i.i4, align 4
  switch i32 %4, label %if.end [
    i32 4, label %return
    i32 5, label %return
    i32 6, label %return
    i32 7, label %return
    i32 9, label %return
    i32 2, label %sw.bb4
  ]

sw.bb4:                                           ; preds = %_ZNK3app13get_decl_kindEv.exit
  %5 = load ptr, ptr %this, align 8
  %call5 = tail call noundef zeroext i1 @_ZNK11ast_manager7is_boolEPK4expr(ptr noundef nonnull align 8 dereferenceable(976) %5, ptr noundef nonnull %e)
  br label %return

if.end:                                           ; preds = %land.rhs.i, %_ZNK15static_features13is_basic_exprEPK4expr.exit.thread, %entry, %_ZNK3app13get_decl_kindEv.exit
  br label %return

return:                                           ; preds = %_ZNK3app13get_decl_kindEv.exit, %_ZNK3app13get_decl_kindEv.exit, %_ZNK3app13get_decl_kindEv.exit, %_ZNK3app13get_decl_kindEv.exit, %_ZNK3app13get_decl_kindEv.exit, %if.end, %sw.bb4
  %retval.0 = phi i1 [ false, %if.end ], [ %call5, %sw.bb4 ], [ true, %_ZNK3app13get_decl_kindEv.exit ], [ true, %_ZNK3app13get_decl_kindEv.exit ], [ true, %_ZNK3app13get_decl_kindEv.exit ], [ true, %_ZNK3app13get_decl_kindEv.exit ], [ true, %_ZNK3app13get_decl_kindEv.exit ]
  ret i1 %retval.0
}